; Function Attrs: mustprogress uwtable
define hidden void @_ZN4cvc58internal18pfnEnsureClosedWrtERKNS0_7OptionsEPNS0_9ProofNodeERKSt6vectorINS0_12NodeTemplateILb1EEESaIS8_EEPKcSE_(ptr noundef nonnull readonly align 8 captures(none) dereferenceable(408) %0, ptr noundef %1, ptr noundef nonnull readonly align 8 captures(none) dereferenceable(24) %2, ptr noundef %3, ptr noundef %4) local_unnamed_addr #3 personality ptr @__gxx_personality_v0 {
  %6 = alloca %"class.cvc5::internal::NodeTemplate", align 8
  tail call void @llvm.experimental.noalias.scope.decl(metadata !293)
  %7 = load ptr, ptr @_ZN4cvc58internal12NodeTemplateILb1EE6s_nullE, align 8, !tbaa !233, !noalias !293
  store ptr %7, ptr %6, align 8, !tbaa !233, !alias.scope !293
  %8 = load i64, ptr %7, align 8, !noalias !293
  %9 = lshr i64 %8, 40
  %10 = trunc nuw nsw i64 %9 to i32
  %11 = and i32 %10, 1048575
  %12 = icmp samesign ult i32 %11, 1048574
  br i1 %12, label %13, label %18, !prof !236

13:                                               ; preds = %5
  %14 = add i64 %8, 1099511627776
  %15 = and i64 %14, 1152920405095219200
  %16 = and i64 %8, -1152920405095219201
  %17 = or disjoint i64 %15, %16
  store i64 %17, ptr %7, align 8, !noalias !293
  br label %_ZN4cvc58internal12NodeTemplateILb1EE4nullEv.exit

18:                                               ; preds = %5
  %19 = icmp eq i32 %11, 1048574
  br i1 %19, label %20, label %_ZN4cvc58internal12NodeTemplateILb1EE4nullEv.exit, !prof !237

20:                                               ; preds = %18
  %21 = or i64 %8, 1152920405095219200
  store i64 %21, ptr %7, align 8, !noalias !293
  tail call void @_ZN4cvc58internal4expr9NodeValue20markRefCountMaxedOutEv(ptr noundef nonnull align 8 dereferenceable(24) %7), !noalias !293
  br label %_ZN4cvc58internal12NodeTemplateILb1EE4nullEv.exit

_ZN4cvc58internal12NodeTemplateILb1EE4nullEv.exit: ; preds = %13, %18, %20
  invoke void @_ZN4cvc58internal23ensureClosedWrtInternalERKNS0_7OptionsENS0_12NodeTemplateILb1EEEPNS0_14ProofGeneratorEPNS0_9ProofNodeERKSt6vectorIS5_SaIS5_EEPKcSG_b(ptr noundef nonnull align 8 dereferenceable(408) %0, ptr noundef nonnull %6, ptr noundef null, ptr noundef %1, ptr noundef nonnull align 8 dereferenceable(24) %2, ptr noundef %3, ptr noundef %4, i1 noundef zeroext false)
          to label %22 unwind label %35

22:                                               ; preds = %_ZN4cvc58internal12NodeTemplateILb1EE4nullEv.exit
  %23 = load i64, ptr %7, align 8
  %24 = and i64 %23, 1152920405095219200
  %.not.i.i = icmp eq i64 %24, 1152920405095219200
  br i1 %.not.i.i, label %_ZN4cvc58internal12NodeTemplateILb1EED2Ev.exit, label %25, !prof !237

25:                                               ; preds = %22
  %26 = add i64 %23, 1152920405095219200
  %27 = and i64 %26, 1152920405095219200
  %28 = and i64 %23, -1152920405095219201
  %29 = or disjoint i64 %27, %28
  store i64 %29, ptr %7, align 8
  %30 = icmp eq i64 %27, 0
  br i1 %30, label %31, label %_ZN4cvc58internal12NodeTemplateILb1EED2Ev.exit, !prof !237

31:                                               ; preds = %25
  invoke void @_ZN4cvc58internal4expr9NodeValue15markForDeletionEv(ptr noundef nonnull align 8 dereferenceable(24) %7)
          to label %_ZN4cvc58internal12NodeTemplateILb1EED2Ev.exit unwind label %32

32:                                               ; preds = %31
  %33 = landingpad { ptr, i32 }
          catch ptr null
  %34 = extractvalue { ptr, i32 } %33, 0
  tail call void @__clang_call_terminate(ptr %34) #21
  unreachable

_ZN4cvc58internal12NodeTemplateILb1EED2Ev.exit:   ; preds = %22, %25, %31
  ret void

35:                                               ; preds = %_ZN4cvc58internal12NodeTemplateILb1EE4nullEv.exit
  %36 = landingpad { ptr, i32 }
          cleanup
  call void @_ZN4cvc58internal12NodeTemplateILb1EED2Ev(ptr noundef nonnull align 8 dereferenceable(8) %6) #19
  resume { ptr, i32 } %36
}